Certificate:
    Data:
        Version: 3 (0x2)
        Serial Number: 184 (0xb8)
    Signature Algorithm: sha1WithRSAEncryption
        Issuer: C=GB, ST=West Midlands, L=Birmingham, O=The University of Birmingham, OU=School of Computer Science, CN=SoCS Root CA/emailAddress=hostmaster@cs.bham.ac.uk
        Validity
            Not Before: Feb 27 10:08:35 2015 GMT
            Not After : Feb 24 10:08:35 2025 GMT
        Subject: C=GB, ST=West Midlands, L=Birmingham, O=The University of Birmingham, OU=School of Computer Science, CN=vm-yxf373.cs.bham.ac.uk/emailAddress=hostmaster@cs.bham.ac.uk
        Subject Public Key Info:
            Public Key Algorithm: rsaEncryption
                Public-Key: (2048 bit)
                Modulus:
                    00:d2:69:5c:8c:4a:b6:93:92:19:32:87:0b:5b:0f:
                    9a:a2:c0:dc:0f:aa:9d:3f:6e:0c:85:6c:37:d9:2e:
                    f1:bc:72:9f:5b:f0:e2:5d:5b:df:07:e3:72:70:d1:
                    38:ee:c1:53:d4:22:16:1d:86:e2:f0:6d:9c:05:e2:
                    e0:40:57:bc:df:58:be:a0:e6:51:9f:86:0b:99:e4:
                    f9:6e:31:0a:d7:47:96:ad:c6:f1:76:96:3c:fa:3a:
                    8f:f0:fe:49:05:d7:b3:23:e7:7e:43:2f:d8:9b:ba:
                    e3:6e:1a:42:52:39:6d:f9:0f:33:8f:2b:07:22:41:
                    d6:db:6c:5d:c7:f7:70:a6:cf:a6:50:8f:89:ca:c1:
                    94:34:6d:01:2c:ea:c9:aa:1c:f0:db:c3:c2:7b:ee:
                    19:6d:09:d0:b2:87:a5:24:b3:3d:54:19:2e:eb:37:
                    40:c6:cc:0c:b4:85:39:24:c0:20:40:a3:3c:40:56:
                    89:64:3e:ec:56:5b:a3:19:6b:52:61:57:f3:22:46:
                    31:ec:8c:d2:66:ef:a1:e9:68:05:29:e6:f6:fe:d3:
                    e2:30:f9:57:87:dd:05:1a:06:14:0d:cc:27:d5:72:
                    d4:cc:27:fa:89:b9:0f:8c:cd:1f:8b:3b:bc:fd:bd:
                    d0:e1:5c:8c:a1:69:0c:ba:4c:5f:63:98:2e:4e:39:
                    28:77
                Exponent: 65537 (0x10001)
        X509v3 extensions:
            X509v3 Basic Constraints: critical
                CA:FALSE
            X509v3 Subject Key Identifier: 
                91:EA:20:CE:A0:CD:48:32:D1:48:22:82:05:30:C6:8F:82:A4:CA:96
            X509v3 Authority Key Identifier: 
                keyid:A8:C1:99:30:FB:46:05:DB:C8:CB:7B:2F:3D:C4:CB:E0:EB:8B:66:0B
                DirName:/C=GB/ST=West Midlands/L=Birmingham/O=The University of Birmingham/OU=School of Computer Science/CN=SoCS Root CA/emailAddress=hostmaster@cs.bham.ac.uk
                serial:00

            Netscape Cert Type: 
                SSL Server
            X509v3 Extended Key Usage: 
                TLS Web Server Authentication
    Signature Algorithm: sha1WithRSAEncryption
         b8:25:39:90:4f:14:ff:cc:dd:ca:90:db:59:a3:6a:62:6f:6e:
         a7:ec:f1:60:64:71:7d:f3:75:86:70:2d:c2:ff:83:42:05:ca:
         78:e1:2d:b0:29:ff:ab:1c:e5:4a:88:a9:64:b1:be:64:77:d2:
         34:d3:71:bd:a3:98:fe:c9:4e:37:5e:41:63:45:f6:ec:8f:df:
         a3:59:8a:89:53:be:e5:7e:84:6c:ab:9e:b9:67:a3:a9:07:6a:
         e1:ae:d9:3b:1e:37:8c:7a:0c:6c:bd:e8:20:88:38:03:2c:3e:
         59:30:b8:53:35:6e:0f:d2:b0:af:f4:6a:08:0e:c9:1c:d9:1a:
         d5:07
-----BEGIN CERTIFICATE-----
MIIE5TCCBE6gAwIBAgICALgwDQYJKoZIhvcNAQEFBQAwgcYxCzAJBgNVBAYTAkdC
MRYwFAYDVQQIEw1XZXN0IE1pZGxhbmRzMRMwEQYDVQQHEwpCaXJtaW5naGFtMSUw
IwYDVQQKExxUaGUgVW5pdmVyc2l0eSBvZiBCaXJtaW5naGFtMSMwIQYDVQQLExpT
Y2hvb2wgb2YgQ29tcHV0ZXIgU2NpZW5jZTEVMBMGA1UEAxMMU29DUyBSb290IENB
MScwJQYJKoZIhvcNAQkBFhhob3N0bWFzdGVyQGNzLmJoYW0uYWMudWswHhcNMTUw
MjI3MTAwODM1WhcNMjUwMjI0MTAwODM1WjCB0TELMAkGA1UEBhMCR0IxFjAUBgNV
BAgTDVdlc3QgTWlkbGFuZHMxEzARBgNVBAcTCkJpcm1pbmdoYW0xJTAjBgNVBAoT
HFRoZSBVbml2ZXJzaXR5IG9mIEJpcm1pbmdoYW0xIzAhBgNVBAsTGlNjaG9vbCBv
ZiBDb21wdXRlciBTY2llbmNlMSAwHgYDVQQDExd2bS15eGYzNzMuY3MuYmhhbS5h
Yy51azEnMCUGCSqGSIb3DQEJARYYaG9zdG1hc3RlckBjcy5iaGFtLmFjLnVrMIIB
IjANBgkqhkiG9w0BAQEFAAOCAQ8AMIIBCgKCAQEA0mlcjEq2k5IZMocLWw+aosDc
D6qdP24MhWw32S7xvHKfW/DiXVvfB+NycNE47sFT1CIWHYbi8G2cBeLgQFe831i+
oOZRn4YLmeT5bjEK10eWrcbxdpY8+jqP8P5JBdezI+d+Qy/Ym7rjbhpCUjlt+Q8z
jysHIkHW22xdx/dwps+mUI+JysGUNG0BLOrJqhzw28PCe+4ZbQnQsoelJLM9VBku
6zdAxswMtIU5JMAgQKM8QFaJZD7sVlujGWtSYVfzIkYx7IzSZu+h6WgFKeb2/tPi
MPlXh90FGgYUDcwn1XLUzCf6ibkPjM0fizu8/b3Q4VyMoWkMukxfY5guTjkodwID
AQABo4IBTzCCAUswDAYDVR0TAQH/BAIwADAdBgNVHQ4EFgQUkeogzqDNSDLRSCKC
BTDGj4KkypYwgfMGA1UdIwSB6zCB6IAUqMGZMPtGBdvIy3svPcTL4OuLZguhgcyk
gckwgcYxCzAJBgNVBAYTAkdCMRYwFAYDVQQIEw1XZXN0IE1pZGxhbmRzMRMwEQYD
VQQHEwpCaXJtaW5naGFtMSUwIwYDVQQKExxUaGUgVW5pdmVyc2l0eSBvZiBCaXJt
aW5naGFtMSMwIQYDVQQLExpTY2hvb2wgb2YgQ29tcHV0ZXIgU2NpZW5jZTEVMBMG
A1UEAxMMU29DUyBSb290IENBMScwJQYJKoZIhvcNAQkBFhhob3N0bWFzdGVyQGNz
LmJoYW0uYWMudWuCAQAwEQYJYIZIAYb4QgEBBAQDAgZAMBMGA1UdJQQMMAoGCCsG
AQUFBwMBMA0GCSqGSIb3DQEBBQUAA4GBALglOZBPFP/M3cqQ21mjamJvbqfs8WBk
cX3zdYZwLcL/g0IFynjhLbAp/6sc5UqIqWSxvmR30jTTcb2jmP7JTjdeQWNF9uyP
36NZiolTvuV+hGyrnrlno6kHauGu2TseN4x6DGy96CCIOAMsPlkwuFM1bg/SsK/0
aggOyRzZGtUH
-----END CERTIFICATE-----
